; ModuleID = 'source-C-CXX/49/2713.c'
source_filename = "source-C-CXX/49/2713.c"
target datalayout = "e-m:e-p270:32:32-p271:32:32-p272:64:64-i64:64-f80:128-n8:16:32:64-S128"
target triple = "x86_64-pc-linux-gnu"

@.str = private unnamed_addr constant [3 x i8] c"%d\00", align 1
@.str.1 = private unnamed_addr constant [4 x i8] c"%d\0A\00", align 1

; Function Attrs: nofree nounwind sspstrong uwtable
define dso_local i32 @main() local_unnamed_addr #0 {
  %1 = alloca i32, align 4
  %2 = bitcast i32* %1 to i8*
  call void @llvm.lifetime.start.p0i8(i64 4, i8* nonnull %2) #3
  %3 = call i32 (i8*, ...) @__isoc99_scanf(i8* getelementptr inbounds ([3 x i8], [3 x i8]* @.str, i64 0, i64 0), i32* nonnull %1)
  %4 = load i32, i32* %1, align 4, !tbaa !5
  %5 = add nsw i32 %4, 12
  %6 = srem i32 %5, 7
  %7 = icmp eq i32 %6, 5
  br i1 %7, label %8, label %10

8:                                                ; preds = %0
  %9 = call i32 (i8*, ...) @printf(i8* nonnull dereferenceable(1) getelementptr inbounds ([4 x i8], [4 x i8]* @.str.1, i64 0, i64 0), i32 1)
  br label %10

10:                                               ; preds = %0, %8
  %11 = load i32, i32* %1, align 4, !tbaa !5
  %12 = add nsw i32 %11, 43
  %13 = srem i32 %12, 7
  %14 = icmp eq i32 %13, 5
  br i1 %14, label %15, label %17

15:                                               ; preds = %10
  %16 = call i32 (i8*, ...) @printf(i8* nonnull dereferenceable(1) getelementptr inbounds ([4 x i8], [4 x i8]* @.str.1, i64 0, i64 0), i32 2)
  br label %17

17:                                               ; preds = %15, %10
  %18 = load i32, i32* %1, align 4, !tbaa !5
  %19 = add nsw i32 %18, 71
  %20 = srem i32 %19, 7
  %21 = icmp eq i32 %20, 5
  br i1 %21, label %22, label %24

22:                                               ; preds = %17
  %23 = call i32 (i8*, ...) @printf(i8* nonnull dereferenceable(1) getelementptr inbounds ([4 x i8], [4 x i8]* @.str.1, i64 0, i64 0), i32 3)
  br label %24

24:                                               ; preds = %22, %17
  %25 = load i32, i32* %1, align 4, !tbaa !5
  %26 = add nsw i32 %25, 102
  %27 = srem i32 %26, 7
  %28 = icmp eq i32 %27, 5
  br i1 %28, label %29, label %31

29:                                               ; preds = %24
  %30 = call i32 (i8*, ...) @printf(i8* nonnull dereferenceable(1) getelementptr inbounds ([4 x i8], [4 x i8]* @.str.1, i64 0, i64 0), i32 4)
  br label %31

31:                                               ; preds = %29, %24
  %32 = load i32, i32* %1, align 4, !tbaa !5
  %33 = add nsw i32 %32, 132
  %34 = srem i32 %33, 7
  %35 = icmp eq i32 %34, 5
  br i1 %35, label %36, label %38

36:                                               ; preds = %31
  %37 = call i32 (i8*, ...) @printf(i8* nonnull dereferenceable(1) getelementptr inbounds ([4 x i8], [4 x i8]* @.str.1, i64 0, i64 0), i32 5)
  br label %38

38:                                               ; preds = %36, %31
  %39 = load i32, i32* %1, align 4, !tbaa !5
  %40 = add nsw i32 %39, 163
  %41 = srem i32 %40, 7
  %42 = icmp eq i32 %41, 5
  br i1 %42, label %43, label %45

43:                                               ; preds = %38
  %44 = call i32 (i8*, ...) @printf(i8* nonnull dereferenceable(1) getelementptr inbounds ([4 x i8], [4 x i8]* @.str.1, i64 0, i64 0), i32 6)
  br label %45

45:                                               ; preds = %43, %38
  %46 = load i32, i32* %1, align 4, !tbaa !5
  %47 = add nsw i32 %46, 193
  %48 = srem i32 %47, 7
  %49 = icmp eq i32 %48, 5
  br i1 %49, label %50, label %52

50:                                               ; preds = %45
  %51 = call i32 (i8*, ...) @printf(i8* nonnull dereferenceable(1) getelementptr inbounds ([4 x i8], [4 x i8]* @.str.1, i64 0, i64 0), i32 7)
  br label %52

52:                                               ; preds = %50, %45
  %53 = load i32, i32* %1, align 4, !tbaa !5
  %54 = add nsw i32 %53, 224
  %55 = srem i32 %54, 7
  %56 = icmp eq i32 %55, 5
  br i1 %56, label %57, label %59

57:                                               ; preds = %52
  %58 = call i32 (i8*, ...) @printf(i8* nonnull dereferenceable(1) getelementptr inbounds ([4 x i8], [4 x i8]* @.str.1, i64 0, i64 0), i32 8)
  br label %59

59:                                               ; preds = %57, %52
  %60 = load i32, i32* %1, align 4, !tbaa !5
  %61 = add nsw i32 %60, 255
  %62 = srem i32 %61, 7
  %63 = icmp eq i32 %62, 5
  br i1 %63, label %64, label %66

64:                                               ; preds = %59
  %65 = call i32 (i8*, ...) @printf(i8* nonnull dereferenceable(1) getelementptr inbounds ([4 x i8], [4 x i8]* @.str.1, i64 0, i64 0), i32 9)
  br label %66

66:                                               ; preds = %64, %59
  %67 = load i32, i32* %1, align 4, !tbaa !5
  %68 = add nsw i32 %67, 285
  %69 = srem i32 %68, 7
  %70 = icmp eq i32 %69, 5
  br i1 %70, label %71, label %73

71:                                               ; preds = %66
  %72 = call i32 (i8*, ...) @printf(i8* nonnull dereferenceable(1) getelementptr inbounds ([4 x i8], [4 x i8]* @.str.1, i64 0, i64 0), i32 10)
  br label %73

73:                                               ; preds = %71, %66
  %74 = load i32, i32* %1, align 4, !tbaa !5
  %75 = add nsw i32 %74, 316
  %76 = srem i32 %75, 7
  %77 = icmp eq i32 %76, 5
  br i1 %77, label %78, label %80

78:                                               ; preds = %73
  %79 = call i32 (i8*, ...) @printf(i8* nonnull dereferenceable(1) getelementptr inbounds ([4 x i8], [4 x i8]* @.str.1, i64 0, i64 0), i32 11)
  br label %80

80:                                               ; preds = %78, %73
  %81 = load i32, i32* %1, align 4, !tbaa !5
  %82 = add nsw i32 %81, 346
  %83 = srem i32 %82, 7
  %84 = icmp eq i32 %83, 5
  br i1 %84, label %85, label %87

85:                                               ; preds = %80
  %86 = call i32 (i8*, ...) @printf(i8* nonnull dereferenceable(1) getelementptr inbounds ([4 x i8], [4 x i8]* @.str.1, i64 0, i64 0), i32 12)
  br label %87

87:                                               ; preds = %85, %80
  call void @llvm.lifetime.end.p0i8(i64 4, i8* nonnull %2) #3
  ret i32 0
}

; Function Attrs: argmemonly mustprogress nofree nosync nounwind willreturn
declare void @llvm.lifetime.start.p0i8(i64 immarg, i8* nocapture) #1

; Function Attrs: nofree nounwind
declare noundef i32 @__isoc99_scanf(i8* nocapture noundef readonly, ...) local_unnamed_addr #2

; Function Attrs: nofree nounwind
declare noundef i32 @printf(i8* nocapture noundef readonly, ...) local_unnamed_addr #2

; Function Attrs: argmemonly mustprogress nofree nosync nounwind willreturn
declare void @llvm.lifetime.end.p0i8(i64 immarg, i8* nocapture) #1


!llvm.module.flags = !{!0, !1, !2, !3}
!llvm.ident = !{!4}

!0 = !{i32 1, !"wchar_size", i32 4}
!1 = !{i32 7, !"PIC Level", i32 2}
!2 = !{i32 7, !"PIE Level", i32 2}
!3 = !{i32 7, !"uwtable", i32 1}
!4 = !{!"clang version 13.0.0"}
!5 = !{!6, !6, i64 0}
!6 = !{!"int", !7, i64 0}
!7 = !{!"omnipotent char", !8, i64 0}
!8 = !{!"Simple C/C++ TBAA"}
